; Function Attrs: mustprogress nounwind uwtable
define internal fastcc void @_ZN4llvm7memprof12_GLOBAL__N_116getBuildIdStringB5cxx11ERKNS0_12SegmentEntryE(ptr dead_on_unwind noalias writable align 8 %0, ptr nocapture noundef nonnull readonly align 1 dereferenceable(64) %1) unnamed_addr #0 {
  %3 = alloca %"class.std::allocator.31", align 1
  %4 = alloca %"class.std::__cxx11::basic_string", align 8
  %5 = alloca %"class.llvm::raw_string_ostream", align 8
  %6 = alloca %"class.llvm::FormattedNumber", align 8
  %7 = getelementptr inbounds nuw i8, ptr %1, i64 24
  %8 = load i64, ptr %7, align 1
  %9 = icmp eq i64 %8, 0
  br i1 %9, label %10, label %12

10:                                               ; preds = %2
  call void @_ZNSaIcEC1Ev(ptr noundef nonnull align 1 dereferenceable(1) %3) #20
  %11 = call noundef ptr @_ZNSt7__cxx1112basic_stringIcSt11char_traitsIcESaIcEE13_M_local_dataEv(ptr noundef nonnull align 8 dereferenceable(32) %0) #20
  call void @_ZNSt7__cxx1112basic_stringIcSt11char_traitsIcESaIcEE12_Alloc_hiderC1EPcRKS3_(ptr noundef nonnull align 8 dereferenceable(8) %0, ptr noundef %11, ptr noundef nonnull align 1 dereferenceable(1) %3) #20
  call void @_ZNSt7__cxx1112basic_stringIcSt11char_traitsIcESaIcEE12_M_constructIPKcEEvT_S8_St20forward_iterator_tag(ptr noundef nonnull align 8 dereferenceable(32) %0, ptr noundef nonnull @.str.32, ptr noundef nonnull getelementptr inbounds (i8, ptr @.str.32, i64 6))
  call void @_ZNSaIcED1Ev(ptr noundef nonnull align 1 dereferenceable(1) %3) #20
  br label %34

12:                                               ; preds = %2
  call void @_ZNSt7__cxx1112basic_stringIcSt11char_traitsIcESaIcEEC1Ev(ptr noundef nonnull align 8 dereferenceable(32) %4) #20
  %13 = getelementptr inbounds nuw i8, ptr %5, i64 8
  store i32 0, ptr %13, align 8
  %14 = getelementptr inbounds nuw i8, ptr %5, i64 40
  store i8 0, ptr %14, align 8
  %15 = getelementptr inbounds nuw i8, ptr %5, i64 44
  store i32 1, ptr %15, align 4
  %16 = getelementptr inbounds nuw i8, ptr %5, i64 16
  call void @llvm.memset.p0.i64(ptr noundef nonnull align 8 dereferenceable(24) %16, i8 0, i64 24, i1 false)
  store ptr getelementptr inbounds inrange(-16, 104) (i8, ptr @_ZTVN4llvm18raw_string_ostreamE, i64 16), ptr %5, align 8
  %17 = getelementptr inbounds nuw i8, ptr %5, i64 48
  store ptr %4, ptr %17, align 8
  call void @_ZN4llvm11raw_ostream16SetBufferAndModeEPcmNS0_10BufferKindE(ptr noundef nonnull align 8 dereferenceable(48) %5, ptr noundef null, i64 noundef 0, i32 noundef 0) #20
  %18 = load i64, ptr %7, align 1
  %.not = icmp eq i64 %18, 0
  br i1 %.not, label %._crit_edge, label %.lr.ph

.lr.ph:                                           ; preds = %12
  %19 = getelementptr inbounds nuw i8, ptr %1, i64 32
  %20 = getelementptr inbounds nuw i8, ptr %6, i64 8
  %21 = getelementptr inbounds nuw i8, ptr %6, i64 16
  %22 = getelementptr inbounds nuw i8, ptr %6, i64 20
  %23 = getelementptr inbounds nuw i8, ptr %6, i64 21
  %24 = getelementptr inbounds nuw i8, ptr %6, i64 22
  br label %25

25:                                               ; preds = %.lr.ph, %25
  %.05 = phi i64 [ 0, %.lr.ph ], [ %30, %25 ]
  %26 = getelementptr inbounds [32 x i8], ptr %19, i64 0, i64 %.05
  %27 = load i8, ptr %26, align 1
  %28 = zext i8 %27 to i64
  store i64 %28, ptr %6, align 8, !alias.scope !132
  store i64 0, ptr %20, align 8, !alias.scope !132
  store i32 2, ptr %21, align 8, !alias.scope !132
  store i8 1, ptr %22, align 4, !alias.scope !132
  store i8 0, ptr %23, align 1, !alias.scope !132
  store i8 0, ptr %24, align 2, !alias.scope !132
  %29 = call noundef nonnull align 8 dereferenceable(48) ptr @_ZN4llvm11raw_ostreamlsERKNS_15FormattedNumberE(ptr noundef nonnull align 8 dereferenceable(48) %5, ptr noundef nonnull align 8 dereferenceable(23) %6) #20
  %30 = add nuw i64 %.05, 1
  %31 = load i64, ptr %7, align 1
  %32 = icmp ult i64 %30, %31
  br i1 %32, label %25, label %._crit_edge, !llvm.loop !135

._crit_edge:                                      ; preds = %25, %12
  %33 = load ptr, ptr %17, align 8
  call void @_ZNSt7__cxx1112basic_stringIcSt11char_traitsIcESaIcEEC1ERKS4_(ptr noundef nonnull align 8 dereferenceable(32) %0, ptr noundef nonnull align 8 dereferenceable(32) %33) #20
  call void @_ZN4llvm11raw_ostreamD2Ev(ptr noundef nonnull align 8 dereferenceable(48) %5) #20
  call void @_ZNSt7__cxx1112basic_stringIcSt11char_traitsIcESaIcEED1Ev(ptr noundef nonnull align 8 dereferenceable(32) %4) #20
  br label %34

34:                                               ; preds = %._crit_edge, %10
  ret void
}